(lp1
ccopy_reg
_reconstructor
p2
(ctweepy.models
Status
p3
c__builtin__
object
p4
NtRp5
(dp6
S'favorited'
p7
I00
sS'contributors'
p8
NsS'truncated'
p9
I00
sS'text'
p10
VI am lulling @bhattaz  into a false sense of security
p11
sS'source_url'
p12
Vhttp://twitter.com/download/android
p13
sS'in_reply_to_status_id'
p14
NsS'user'
p15
g2
(ctweepy.models
User
p16
g4
NtRp17
(dp18
S'follow_request_sent'
p19
I00
sS'profile_use_background_image'
p20
I01
sS'profile_sidebar_fill_color'
p21
VDDEEF6
p22
sS'id'
p23
I91977519
sS'verified'
p24
I00
sS'entities'
p25
(dp26
Vdescription
p27
(dp28
Vurls
p29
(lp30
sssS'profile_image_url_https'
p31
Vhttps://abs.twimg.com/sticky/default_profile_images/default_profile_4_normal.png
p32
sS'_json'
p33
(dp34
Vfollow_request_sent
p35
I00
sVprofile_use_background_image
p36
I01
sVdefault_profile_image
p37
I01
sVid
p38
I91977519
sVprofile_background_image_url_https
p39
Vhttps://abs.twimg.com/images/themes/theme1/bg.png
p40
sVverified
p41
I00
sVprofile_text_color
p42
V333333
p43
sVprofile_image_url_https
p44
g32
sVprofile_sidebar_fill_color
p45
g22
sVentities
p46
g26
sVfollowers_count
p47
I23
sVprofile_sidebar_border_color
p48
VC0DEED
p49
sVid_str
p50
V91977519
p51
sVprofile_background_color
p52
VC0DEED
p53
sVlisted_count
p54
I2
sVis_translation_enabled
p55
I00
sVutc_offset
p56
I19800
sVstatuses_count
p57
I3
sg27
V
sVfriends_count
p58
I86
sVlocation
p59
V
sVprofile_link_color
p60
V0084B4
p61
sVprofile_image_url
p62
Vhttp://abs.twimg.com/sticky/default_profile_images/default_profile_4_normal.png
p63
sVfollowing
p64
I00
sVgeo_enabled
p65
I00
sVprofile_background_image_url
p66
Vhttp://abs.twimg.com/images/themes/theme1/bg.png
p67
sVscreen_name
p68
VVivekNabhi
p69
sVlang
p70
Ven
p71
sVprofile_background_tile
p72
I00
sVfavourites_count
p73
I0
sVname
p74
VVivek Nabhi
p75
sVnotifications
p76
I00
sVurl
p77
NsVcreated_at
p78
VMon Nov 23 10:20:51 +0000 2009
p79
sVcontributors_enabled
p80
I00
sVtime_zone
p81
VKolkata
p82
sVprotected
p83
I00
sVdefault_profile
p84
I01
sVis_translator
p85
I00
ssS'contributors_enabled'
p86
I00
sS'profile_text_color'
p87
g43
sS'followers_count'
p88
I23
sS'profile_sidebar_border_color'
p89
g49
sS'id_str'
p90
g51
sS'default_profile_image'
p91
I01
sS'listed_count'
p92
I2
sS'is_translation_enabled'
p93
I00
sS'utc_offset'
p94
I19800
sS'statuses_count'
p95
I3
sS'description'
p96
V
sS'friends_count'
p97
I86
sS'location'
p98
V
sS'profile_link_color'
p99
g61
sS'profile_image_url'
p100
g63
sS'notifications'
p101
I00
sS'geo_enabled'
p102
I00
sS'profile_background_color'
p103
g53
sS'profile_background_image_url'
p104
g67
sS'screen_name'
p105
g69
sS'lang'
p106
g71
sS'following'
p107
I00
sS'profile_background_tile'
p108
I00
sS'favourites_count'
p109
I0
sS'name'
p110
g75
sS'url'
p111
NsS'created_at'
p112
cdatetime
datetime
p113
(S'\x07\xd9\x0b\x17\n\x143\x00\x00\x00'
tRp114
sS'profile_background_image_url_https'
p115
g40
sS'time_zone'
p116
g82
sS'protected'
p117
I00
sS'default_profile'
p118
I01
sS'is_translator'
p119
I00
sbsS'geo'
p120
Nsg23
I541508315097104384
sS'favorite_count'
p121
I0
sS'source'
p122
VTwitter for Android
p123
sg106
Ven
p124
sS'author'
p125
g17
sg112
g113
(S'\x07\xde\x0c\x07\x08\x17%\x00\x00\x00'
tRp126
sg33
(dp127
Vcontributors
p128
NsVtruncated
p129
I00
sVtext
p130
g11
sVin_reply_to_status_id
p131
Nsg38
I541508315097104384
sVfavorite_count
p132
I0
sVsource
p133
V<a href="http://twitter.com/download/android" rel="nofollow">Twitter for Android</a>
p134
sVretweeted
p135
I00
sVcoordinates
p136
Nsg46
(dp137
Vsymbols
p138
(lp139
sVuser_mentions
p140
(lp141
sVhashtags
p142
(lp143
sg29
(lp144
ssVin_reply_to_screen_name
p145
Nsg50
V541508315097104384
p146
sVretweet_count
p147
I0
sVin_reply_to_user_id
p148
NsVfavorited
p149
I00
sVuser
p150
g34
sVgeo
p151
NsVin_reply_to_user_id_str
p152
Nsg70
g124
sg78
VSun Dec 07 08:23:37 +0000 2014
p153
sVin_reply_to_status_id_str
p154
NsVplace
p155
NssS'coordinates'
p156
NsS'in_reply_to_user_id_str'
p157
Nsg25
g137
sS'in_reply_to_status_id_str'
p158
NsS'in_reply_to_screen_name'
p159
Nsg90
g146
sS'retweeted'
p160
I00
sS'place'
p161
NsS'retweet_count'
p162
I0
sS'in_reply_to_user_id'
p163
Nsbag2
(g3
g4
NtRp164
(dp165
g7
I00
sg8
Nsg9
I00
sg10
V@tuxerman Yes I noticed and first reaction was to tell you that :P
p166
sg12
Vhttp://twitter.com
p167
sg14
I532829759416578048
sg15
g2
(g16
g4
NtRp168
(dp169
g19
I00
sg20
I01
sg21
VDDEEF6
p170
sg23
I91977519
sg24
I00
sg25
(dp171
g27
(dp172
g29
(lp173
sssg31
Vhttps://abs.twimg.com/sticky/default_profile_images/default_profile_4_normal.png
p174
sg33
(dp175
g35
I00
sg36
I01
sg37
I01
sg38
I91977519
sg39
Vhttps://abs.twimg.com/images/themes/theme1/bg.png
p176
sg41
I00
sg42
V333333
p177
sg44
g174
sg45
g170
sg46
g171
sg47
I23
sg48
VC0DEED
p178
sg50
V91977519
p179
sg52
VC0DEED
p180
sg54
I2
sg55
I00
sg56
I19800
sg57
I3
sg27
V
sg58
I86
sg59
V
sg60
V0084B4
p181
sg62
Vhttp://abs.twimg.com/sticky/default_profile_images/default_profile_4_normal.png
p182
sg64
I00
sg65
I00
sg66
Vhttp://abs.twimg.com/images/themes/theme1/bg.png
p183
sg68
VVivekNabhi
p184
sg70
Ven
p185
sg72
I00
sg73
I0
sg74
VVivek Nabhi
p186
sg76
I00
sg77
Nsg78
VMon Nov 23 10:20:51 +0000 2009
p187
sg80
I00
sg81
VKolkata
p188
sg83
I00
sg84
I01
sg85
I00
ssg86
I00
sg87
g177
sg88
I23
sg89
g178
sg90
g179
sg91
I01
sg92
I2
sg93
I00
sg94
I19800
sg95
I3
sg96
V
sg97
I86
sg98
V
sg99
g181
sg100
g182
sg101
I00
sg102
I00
sg103
g180
sg104
g183
sg105
g184
sg106
g185
sg107
I00
sg108
I00
sg109
I0
sg110
g186
sg111
Nsg112
g113
(S'\x07\xd9\x0b\x17\n\x143\x00\x00\x00'
tRp189
sg115
g176
sg116
g188
sg117
I00
sg118
I01
sg119
I00
sbsg120
Nsg23
I534924868303978496
sg121
I0
sg122
VTwitter Web Client
p190
sg106
Ven
p191
sg125
g168
sg112
g113
(S'\x07\xde\x0b\x13\x04\x17\x15\x00\x00\x00'
tRp192
sg33
(dp193
g128
Nsg129
I00
sg130
g166
sg131
I532829759416578048
sg38
I534924868303978496
sg132
I0
sg133
V<a href="http://twitter.com" rel="nofollow">Twitter Web Client</a>
p194
sg135
I00
sg136
Nsg46
(dp195
g138
(lp196
sg140
(lp197
(dp198
g38
I37914598
sVindices
p199
(lp200
I0
aI9
asg50
V37914598
p201
sg68
Vtuxerman
p202
sg74
Vsriram
p203
sasg142
(lp204
sg29
(lp205
ssg145
Vtuxerman
p206
sg50
V534924868303978496
p207
sg147
I0
sg148
I37914598
sg149
I00
sg150
g175
sg151
Nsg152
V37914598
p208
sg70
g191
sg78
VWed Nov 19 04:23:21 +0000 2014
p209
sg154
V532829759416578048
p210
sg155
Nssg156
Nsg157
g208
sg25
g195
sg158
g210
sg159
g206
sg90
g207
sg160
I00
sg161
Nsg162
I0
sg163
I37914598
sbag2
(g3
g4
NtRp211
(dp212
g7
I00
sg8
Nsg9
I00
sg10
VRT @venkatananth: MH370 and the depth of the problem. Insane graphic by Washington Post to illustrate the extent of the challenge.  http://\u2026
p213
sg12
Vhttp://twitter.com
p214
sS'possibly_sensitive'
p215
I00
sg14
Nsg15
g2
(g16
g4
NtRp216
(dp217
g19
I00
sg20
I01
sg21
VDDEEF6
p218
sg23
I91977519
sg24
I00
sg25
(dp219
g27
(dp220
g29
(lp221
sssg31
Vhttps://abs.twimg.com/sticky/default_profile_images/default_profile_4_normal.png
p222
sg33
(dp223
g35
I00
sg36
I01
sg37
I01
sg38
I91977519
sg39
Vhttps://abs.twimg.com/images/themes/theme1/bg.png
p224
sg41
I00
sg42
V333333
p225
sg44
g222
sg45
g218
sg46
g219
sg47
I23
sg48
VC0DEED
p226
sg50
V91977519
p227
sg52
VC0DEED
p228
sg54
I2
sg55
I00
sg56
I19800
sg57
I3
sg27
V
sg58
I86
sg59
V
sg60
V0084B4
p229
sg62
Vhttp://abs.twimg.com/sticky/default_profile_images/default_profile_4_normal.png
p230
sg64
I00
sg65
I00
sg66
Vhttp://abs.twimg.com/images/themes/theme1/bg.png
p231
sg68
VVivekNabhi
p232
sg70
Ven
p233
sg72
I00
sg73
I0
sg74
VVivek Nabhi
p234
sg76
I00
sg77
Nsg78
VMon Nov 23 10:20:51 +0000 2009
p235
sg80
I00
sg81
VKolkata
p236
sg83
I00
sg84
I01
sg85
I00
ssg86
I00
sg87
g225
sg88
I23
sg89
g226
sg90
g227
sg91
I01
sg92
I2
sg93
I00
sg94
I19800
sg95
I3
sg96
V
sg97
I86
sg98
V
sg99
g229
sg100
g230
sg101
I00
sg102
I00
sg103
g228
sg104
g231
sg105
g232
sg106
g233
sg107
I00
sg108
I00
sg109
I0
sg110
g234
sg111
Nsg112
g113
(S'\x07\xd9\x0b\x17\n\x143\x00\x00\x00'
tRp237
sg115
g224
sg116
g236
sg117
I00
sg118
I01
sg119
I00
sbsg120
Nsg23
I453741439105896448
sg121
I0
sg122
VTwitter Web Client
p238
sg106
Ven
p239
sS'retweeted_status'
p240
g2
(g3
g4
NtRp241
(dp242
g7
I00
sg8
Nsg9
I00
sg10
VMH370 and the depth of the problem. Insane graphic by Washington Post to illustrate the extent of the challenge.  http://t.co/Vko9fk9DM9
p243
sg12
Vhttp://www.apple.com
p244
sg215
I00
sg14
Nsg15
g2
(g16
g4
NtRp245
(dp246
g19
I00
sg20
I01
sg21
V95E8EC
p247
sg23
I17145512
sg24
I00
sg25
(dp248
g77
(dp249
g29
(lp250
(dp251
g77
Vhttp://t.co/e2knQntLTJ
p252
sg199
(lp253
I0
aI22
asVexpanded_url
p254
Vhttp://venkatananth.tumblr.com
p255
sVdisplay_url
p256
Vvenkatananth.tumblr.com
p257
sassg27
(dp258
g29
(lp259
sssg31
Vhttps://pbs.twimg.com/profile_images/418070903583289345/sHOUUw6Q_normal.jpeg
p260
sg33
(dp261
g35
I00
sg36
I01
sg37
I00
sg38
I17145512
sg39
Vhttps://abs.twimg.com/images/themes/theme4/bg.gif
p262
sg41
I00
sg42
V3C3940
p263
sg44
g260
sg45
g247
sg46
g248
sg47
I16657
sg48
VFFFFFF
p264
sg50
V17145512
p265
sg52
V0099B9
p266
sg54
I736
sg55
I00
sg56
I19800
sg57
I228354
sg27
V28, Buzz Editor @livemint. Other interests - Foreign affairs, @ManUtd, North Korea, Indian politics & WTFs. Views personal.
p267
sg58
I2321
sg59
VNew Delhi
p268
sg60
V3B94D9
p269
sg62
Vhttp://pbs.twimg.com/profile_images/418070903583289345/sHOUUw6Q_normal.jpeg
p270
sg64
I00
sg65
I01
sg66
Vhttp://abs.twimg.com/images/themes/theme4/bg.gif
p271
sg68
Vvenkatananth
p272
sg70
Ven
p273
sg72
I00
sg73
I2736
sg74
VVenkat Ananth
p274
sg76
I00
sg77
Vhttp://t.co/e2knQntLTJ
p275
sg78
VTue Nov 04 01:13:16 +0000 2008
p276
sg80
I00
sg81
VMumbai
p277
sg83
I00
sg84
I00
sg85
I00
ssg86
I00
sg87
g263
sg88
I16657
sg89
g264
sg90
g265
sg91
I00
sg92
I736
sg93
I00
sg94
I19800
sg95
I228354
sg96
g267
sg97
I2321
sg98
g268
sg99
g269
sg100
g270
sg101
I00
sg102
I01
sg103
g266
sg104
g271
sg105
g272
sg106
g273
sg107
I00
sg108
I00
sg109
I2736
sg110
g274
sg111
g275
sg112
g113
(S'\x07\xd8\x0b\x04\x01\r\x10\x00\x00\x00'
tRp278
sg115
g262
sg116
g277
sg117
I00
sg118
I00
sg119
I00
sbsg120
Nsg23
I453718939361480704
sg121
I23
sg122
ViOS
p279
sg106
Ven
p280
sg125
g245
sg112
g113
(S'\x07\xde\x04\t\x02\x13;\x00\x00\x00'
tRp281
sg33
(dp282
g128
Nsg129
I00
sg130
g243
sg131
Nsg38
I453718939361480704
sg132
I23
sg133
V<a href="http://www.apple.com" rel="nofollow">iOS</a>
p283
sg135
I00
sg136
Nsg46
(dp284
g138
(lp285
sg140
(lp286
sg142
(lp287
sg29
(lp288
(dp289
g77
Vhttp://t.co/Vko9fk9DM9
p290
sg199
(lp291
I114
aI136
asg254
Vhttp://apps.washingtonpost.com/g/page/mobile/world/the-depth-of-the-problem/931/
p292
sg256
Vapps.washingtonpost.com/g/page/mobile/\u2026
p293
sassg145
Nsg50
V453718939361480704
p294
sg147
I33
sg148
Nsg149
I00
sg150
g261
sg151
Nsg152
NsVpossibly_sensitive
p295
I00
sg70
g280
sg78
VWed Apr 09 02:19:59 +0000 2014
p296
sg154
Nsg155
Nssg156
Nsg157
Nsg25
g284
sg158
Nsg159
Nsg90
g294
sg160
I00
sg161
Nsg162
I33
sg163
Nsbsg125
g216
sg112
g113
(S'\x07\xde\x04\t\x031\x17\x00\x00\x00'
tRp297
sg33
(dp298
g128
Nsg129
I00
sg130
g213
sg131
Nsg38
I453741439105896448
sg132
I0
sg133
V<a href="http://twitter.com" rel="nofollow">Twitter Web Client</a>
p299
sg135
I00
sg136
Nsg46
(dp300
g138
(lp301
sg140
(lp302
(dp303
g38
I17145512
sg199
(lp304
I3
aI16
asg50
V17145512
p305
sg68
Vvenkatananth
p306
sg74
VVenkat Ananth
p307
sasg142
(lp308
sg29
(lp309
(dp310
g77
Vhttp://t.co/Vko9fk9DM9
p311
sg199
(lp312
I139
aI140
asg254
Vhttp://apps.washingtonpost.com/g/page/mobile/world/the-depth-of-the-problem/931/
p313
sg256
Vapps.washingtonpost.com/g/page/mobile/\u2026
p314
sassg145
Nsg50
V453741439105896448
p315
sg147
I33
sg148
Nsg149
I00
sVretweeted_status
p316
g282
sg150
g223
sg151
Nsg152
Nsg295
I00
sg70
g239
sg78
VWed Apr 09 03:49:23 +0000 2014
p317
sg154
Nsg155
Nssg156
Nsg157
Nsg25
g300
sg158
Nsg159
Nsg90
g315
sg160
I00
sg161
Nsg162
I33
sg163
Nsba.